; Function Attrs: mustprogress uwtable
define dso_local void @_ZNK4base9ListValue14CreateDeepCopyEv(ptr noalias nocapture writeonly sret(%"class.std::unique_ptr.39") align 8 %agg.result, ptr noundef nonnull align 8 dereferenceable(40) %this) local_unnamed_addr #3 align 2 personality ptr @__gxx_personality_v0 {
entry:
  %vtable = load ptr, ptr %this, align 8
  %vfn = getelementptr inbounds i8, ptr %vtable, i64 104
  %0 = load ptr, ptr %vfn, align 8
  %call = tail call noundef ptr %0(ptr noundef nonnull align 8 dereferenceable(40) %this)
  store ptr %call, ptr %agg.result, align 8, !alias.scope !96
  ret void
}